target datalayout = "e-m:e-p270:32:32-p271:32:32-p272:64:64-i64:64-i128:128-f80:128-n8:16:32:64-S128"
target triple = "x86_64-pc-linux-gnu"

%struct.AVFilterContext = type { ptr, ptr, ptr, ptr, ptr, i32, ptr, ptr, i32, ptr, ptr, i32, i32, ptr, ptr, ptr, ptr, i32, ptr, i32, i32 }
%struct.ADecorrelateContext = type { ptr, i32, i64, i32, ptr, %struct.AVLFG, ptr }
%struct.AVLFG = type { [64 x i32], i32 }
%struct.APContext = type { i32, i32, ptr, ptr, double, double, double, double }
%struct.AVFilterLink = type { ptr, ptr, ptr, ptr, i32, i32, i32, i32, %struct.AVRational, i32, i32, i32, %struct.AVChannelLayout, %struct.AVRational, ptr, i32, %struct.AVFilterFormatsConfig, %struct.AVFilterFormatsConfig }
%struct.AVChannelLayout = type { i32, i32, %union.anon.1, ptr }
%union.anon.1 = type { i64 }
%struct.AVRational = type { i32, i32 }
%struct.AVFilterFormatsConfig = type { ptr, ptr, ptr, ptr, ptr }

; Function Attrs: alwaysinline nounwind uwtable
define internal double @ff_exp10(double noundef %0) #7 {
  %2 = alloca double, align 8
  store double %0, ptr %2, align 8, !tbaa !68
  %3 = load double, ptr %2, align 8, !tbaa !68
  %4 = fmul nsz double 0x400A934F0979A371, %3
  %5 = call nsz double @llvm.exp2.f64(double %4)
  ret double %5
}

; Function Attrs: nounwind uwtable
define internal i32 @ap_init(ptr noundef %0, i32 noundef %1, double noundef %2) #1 {
  %4 = alloca i32, align 4
  %5 = alloca ptr, align 8
  %6 = alloca i32, align 4
  %7 = alloca double, align 8
  %8 = alloca i32, align 4
  %9 = alloca double, align 8
  %10 = alloca double, align 8
  %11 = alloca double, align 8
  %12 = alloca double, align 8
  %13 = alloca double, align 8
  %14 = alloca double, align 8
  %15 = alloca double, align 8
  %16 = alloca i32, align 4
  store ptr %0, ptr %5, align 8, !tbaa !67
  store i32 %1, ptr %6, align 4, !tbaa !29
  store double %2, ptr %7, align 8, !tbaa !68
  call void @llvm.lifetime.start.p0(i64 4, ptr %8) #8
  %17 = load double, ptr %7, align 8, !tbaa !68
  %18 = load i32, ptr %6, align 4, !tbaa !29
  %19 = sitofp i32 %18 to double
  %20 = fmul nsz double %17, %19
  %21 = call nsz double @llvm.round.f64(double %20)
  %22 = call i64 @llvm.lrint.i64.f64(double %21)
  %23 = trunc i64 %22 to i32
  store i32 %23, ptr %8, align 4, !tbaa !29
  call void @llvm.lifetime.start.p0(i64 8, ptr %9) #8
  %24 = load i32, ptr %6, align 4, !tbaa !29
  %25 = sitofp i32 %24 to double
  %26 = fmul nsz double 1.000000e-01, %25
  %27 = fdiv nsz double -6.000000e+01, %26
  %28 = load i32, ptr %8, align 4, !tbaa !29
  %29 = sitofp i32 %28 to double
  %30 = fmul nsz double %27, %29
  store double %30, ptr %9, align 8, !tbaa !68
  call void @llvm.lifetime.start.p0(i64 8, ptr %10) #8
  %31 = load i32, ptr %6, align 4, !tbaa !29
  %32 = sitofp i32 %31 to double
  %33 = fmul nsz double 8.000000e-03, %32
  %34 = fdiv nsz double -6.000000e+01, %33
  %35 = load i32, ptr %8, align 4, !tbaa !29
  %36 = sitofp i32 %35 to double
  %37 = fmul nsz double %34, %36
  store double %37, ptr %10, align 8, !tbaa !68
  call void @llvm.lifetime.start.p0(i64 8, ptr %11) #8
  %38 = load i32, ptr %6, align 4, !tbaa !29
  %39 = sitofp i32 %38 to double
  %40 = fdiv nsz double 0x40BAFF80FB853C71, %39
  store double %40, ptr %11, align 8, !tbaa !68
  call void @llvm.lifetime.start.p0(i64 8, ptr %12) #8
  %41 = load double, ptr %11, align 8, !tbaa !68
  %42 = fdiv nsz double %41, 2.000000e+00
  %43 = call nsz double @llvm.tan.f64(double %42)
  store double %43, ptr %12, align 8, !tbaa !68
  call void @llvm.lifetime.start.p0(i64 8, ptr %13) #8
  %44 = load double, ptr %10, align 8, !tbaa !68
  %45 = fdiv nsz double %44, 2.000000e+01
  %46 = call nsz double @ff_exp10(double noundef %45)
  store double %46, ptr %13, align 8, !tbaa !68
  call void @llvm.lifetime.start.p0(i64 8, ptr %14) #8
  %47 = load double, ptr %9, align 8, !tbaa !68
  %48 = load double, ptr %10, align 8, !tbaa !68
  %49 = fsub nsz double %47, %48
  %50 = fdiv nsz double %49, 2.000000e+01
  %51 = call nsz double @ff_exp10(double noundef %50)
  store double %51, ptr %14, align 8, !tbaa !68
  call void @llvm.lifetime.start.p0(i64 8, ptr %15) #8
  %52 = load double, ptr %14, align 8, !tbaa !68
  %53 = call nsz double @llvm.sqrt.f64(double %52)
  store double %53, ptr %15, align 8, !tbaa !68
  %54 = load i32, ptr %8, align 4, !tbaa !29
  %55 = add nsw i32 %54, 1
  %56 = load ptr, ptr %5, align 8, !tbaa !67
  %57 = getelementptr inbounds nuw %struct.APContext, ptr %56, i32 0, i32 0
  store i32 %55, ptr %57, align 8, !tbaa !70
  %58 = load ptr, ptr %5, align 8, !tbaa !67
  %59 = getelementptr inbounds nuw %struct.APContext, ptr %58, i32 0, i32 1
  store i32 0, ptr %59, align 4, !tbaa !72
  %60 = load ptr, ptr %5, align 8, !tbaa !67
  %61 = getelementptr inbounds nuw %struct.APContext, ptr %60, i32 0, i32 0
  %62 = load i32, ptr %61, align 8, !tbaa !70
  %63 = sext i32 %62 to i64
  %64 = call noalias ptr @av_calloc(i64 noundef %63, i64 noundef 8)
  %65 = load ptr, ptr %5, align 8, !tbaa !67
  %66 = getelementptr inbounds nuw %struct.APContext, ptr %65, i32 0, i32 2
  store ptr %64, ptr %66, align 8, !tbaa !73
  %67 = load ptr, ptr %5, align 8, !tbaa !67
  %68 = getelementptr inbounds nuw %struct.APContext, ptr %67, i32 0, i32 0
  %69 = load i32, ptr %68, align 8, !tbaa !70
  %70 = sext i32 %69 to i64
  %71 = call noalias ptr @av_calloc(i64 noundef %70, i64 noundef 8)
  %72 = load ptr, ptr %5, align 8, !tbaa !67
  %73 = getelementptr inbounds nuw %struct.APContext, ptr %72, i32 0, i32 3
  store ptr %71, ptr %73, align 8, !tbaa !74
  %74 = load ptr, ptr %5, align 8, !tbaa !67
  %75 = getelementptr inbounds nuw %struct.APContext, ptr %74, i32 0, i32 2
  %76 = load ptr, ptr %75, align 8, !tbaa !73
  %77 = icmp ne ptr %76, null
  br i1 %77, label %78, label %83

78:                                               ; preds = %3
  %79 = load ptr, ptr %5, align 8, !tbaa !67
  %80 = getelementptr inbounds nuw %struct.APContext, ptr %79, i32 0, i32 3
  %81 = load ptr, ptr %80, align 8, !tbaa !74
  %82 = icmp ne ptr %81, null
  br i1 %82, label %84, label %83

83:                                               ; preds = %78, %3
  store i32 -12, ptr %4, align 4
  store i32 1, ptr %16, align 4
  br label %126

84:                                               ; preds = %78
  %85 = load double, ptr %12, align 8, !tbaa !68
  %86 = load double, ptr %15, align 8, !tbaa !68
  %87 = fadd nsz double %85, %86
  %88 = load ptr, ptr %5, align 8, !tbaa !67
  %89 = getelementptr inbounds nuw %struct.APContext, ptr %88, i32 0, i32 6
  store double %87, ptr %89, align 8, !tbaa !75
  %90 = load double, ptr %12, align 8, !tbaa !68
  %91 = load double, ptr %15, align 8, !tbaa !68
  %92 = fsub nsz double %90, %91
  %93 = load ptr, ptr %5, align 8, !tbaa !67
  %94 = getelementptr inbounds nuw %struct.APContext, ptr %93, i32 0, i32 6
  %95 = load double, ptr %94, align 8, !tbaa !75
  %96 = fdiv nsz double %92, %95
  %97 = load ptr, ptr %5, align 8, !tbaa !67
  %98 = getelementptr inbounds nuw %struct.APContext, ptr %97, i32 0, i32 7
  store double %96, ptr %98, align 8, !tbaa !76
  %99 = load double, ptr %14, align 8, !tbaa !68
  %100 = load double, ptr %12, align 8, !tbaa !68
  %101 = load double, ptr %15, align 8, !tbaa !68
  %102 = fneg nsz double %101
  %103 = call nsz double @llvm.fmuladd.f64(double %99, double %100, double %102)
  %104 = load ptr, ptr %5, align 8, !tbaa !67
  %105 = getelementptr inbounds nuw %struct.APContext, ptr %104, i32 0, i32 6
  %106 = load double, ptr %105, align 8, !tbaa !75
  %107 = fdiv nsz double %103, %106
  %108 = load double, ptr %13, align 8, !tbaa !68
  %109 = fmul nsz double %107, %108
  %110 = load ptr, ptr %5, align 8, !tbaa !67
  %111 = getelementptr inbounds nuw %struct.APContext, ptr %110, i32 0, i32 4
  store double %109, ptr %111, align 8, !tbaa !77
  %112 = load double, ptr %14, align 8, !tbaa !68
  %113 = load double, ptr %12, align 8, !tbaa !68
  %114 = load double, ptr %15, align 8, !tbaa !68
  %115 = call nsz double @llvm.fmuladd.f64(double %112, double %113, double %114)
  %116 = load ptr, ptr %5, align 8, !tbaa !67
  %117 = getelementptr inbounds nuw %struct.APContext, ptr %116, i32 0, i32 6
  %118 = load double, ptr %117, align 8, !tbaa !75
  %119 = fdiv nsz double %115, %118
  %120 = load double, ptr %13, align 8, !tbaa !68
  %121 = fmul nsz double %119, %120
  %122 = load ptr, ptr %5, align 8, !tbaa !67
  %123 = getelementptr inbounds nuw %struct.APContext, ptr %122, i32 0, i32 5
  store double %121, ptr %123, align 8, !tbaa !78
  %124 = load ptr, ptr %5, align 8, !tbaa !67
  %125 = getelementptr inbounds nuw %struct.APContext, ptr %124, i32 0, i32 6
  store double 1.000000e+00, ptr %125, align 8, !tbaa !75
  store i32 0, ptr %4, align 4
  store i32 1, ptr %16, align 4
  br label %126

126:                                              ; preds = %84, %83
  call void @llvm.lifetime.end.p0(i64 8, ptr %15) #8
  call void @llvm.lifetime.end.p0(i64 8, ptr %14) #8
  call void @llvm.lifetime.end.p0(i64 8, ptr %13) #8
  call void @llvm.lifetime.end.p0(i64 8, ptr %12) #8
  call void @llvm.lifetime.end.p0(i64 8, ptr %11) #8
  call void @llvm.lifetime.end.p0(i64 8, ptr %10) #8
  call void @llvm.lifetime.end.p0(i64 8, ptr %9) #8
  call void @llvm.lifetime.end.p0(i64 4, ptr %8) #8
  %127 = load i32, ptr %4, align 4
  ret i32 %127
}

; Function Attrs: inlinehint nounwind uwtable
define internal i32 @av_lfg_get(ptr noundef %0) #5 {
  %2 = alloca ptr, align 8
  %3 = alloca i32, align 4
  store ptr %0, ptr %2, align 8, !tbaa !79
  call void @llvm.lifetime.start.p0(i64 4, ptr %3) #8
  %4 = load ptr, ptr %2, align 8, !tbaa !79
  %5 = getelementptr inbounds nuw %struct.AVLFG, ptr %4, i32 0, i32 0
  %6 = load ptr, ptr %2, align 8, !tbaa !79
  %7 = getelementptr inbounds nuw %struct.AVLFG, ptr %6, i32 0, i32 1
  %8 = load i32, ptr %7, align 4, !tbaa !81
  %9 = sub nsw i32 %8, 24
  %10 = and i32 %9, 63
  %11 = sext i32 %10 to i64
  %12 = getelementptr inbounds [64 x i32], ptr %5, i64 0, i64 %11
  %13 = load i32, ptr %12, align 4, !tbaa !29
  %14 = load ptr, ptr %2, align 8, !tbaa !79
  %15 = getelementptr inbounds nuw %struct.AVLFG, ptr %14, i32 0, i32 0
  %16 = load ptr, ptr %2, align 8, !tbaa !79
  %17 = getelementptr inbounds nuw %struct.AVLFG, ptr %16, i32 0, i32 1
  %18 = load i32, ptr %17, align 4, !tbaa !81
  %19 = sub nsw i32 %18, 55
  %20 = and i32 %19, 63
  %21 = sext i32 %20 to i64
  %22 = getelementptr inbounds [64 x i32], ptr %15, i64 0, i64 %21
  %23 = load i32, ptr %22, align 4, !tbaa !29
  %24 = add i32 %13, %23
  %25 = load ptr, ptr %2, align 8, !tbaa !79
  %26 = getelementptr inbounds nuw %struct.AVLFG, ptr %25, i32 0, i32 0
  %27 = load ptr, ptr %2, align 8, !tbaa !79
  %28 = getelementptr inbounds nuw %struct.AVLFG, ptr %27, i32 0, i32 1
  %29 = load i32, ptr %28, align 4, !tbaa !81
  %30 = and i32 %29, 63
  %31 = sext i32 %30 to i64
  %32 = getelementptr inbounds [64 x i32], ptr %26, i64 0, i64 %31
  store i32 %24, ptr %32, align 4, !tbaa !29
  store i32 %24, ptr %3, align 4, !tbaa !29
  %33 = load ptr, ptr %2, align 8, !tbaa !79
  %34 = getelementptr inbounds nuw %struct.AVLFG, ptr %33, i32 0, i32 1
  %35 = load i32, ptr %34, align 4, !tbaa !81
  %36 = add i32 %35, 1
  store i32 %36, ptr %34, align 4, !tbaa !81
  %37 = load i32, ptr %3, align 4, !tbaa !29
  call void @llvm.lifetime.end.p0(i64 4, ptr %3) #8
  ret i32 %37
}

; Function Attrs: nounwind uwtable
define internal i32 @config_input(ptr noundef %0) #1 {
  %2 = alloca i32, align 4
  %3 = alloca ptr, align 8
  %4 = alloca ptr, align 8
  %5 = alloca ptr, align 8
  %6 = alloca i32, align 4
  %7 = alloca i32, align 4
  %8 = alloca i32, align 4
  %9 = alloca i32, align 4
  store ptr %0, ptr %3, align 8, !tbaa !35
  call void @llvm.lifetime.start.p0(i64 8, ptr %4) #8
  %10 = load ptr, ptr %3, align 8, !tbaa !35
  %11 = getelementptr inbounds nuw %struct.AVFilterLink, ptr %10, i32 0, i32 2
  %12 = load ptr, ptr %11, align 8, !tbaa !39
  store ptr %12, ptr %4, align 8, !tbaa !4
  call void @llvm.lifetime.start.p0(i64 8, ptr %5) #8
  %13 = load ptr, ptr %4, align 8, !tbaa !4
  %14 = getelementptr inbounds nuw %struct.AVFilterContext, ptr %13, i32 0, i32 9
  %15 = load ptr, ptr %14, align 8, !tbaa !9
  store ptr %15, ptr %5, align 8, !tbaa !22
  call void @llvm.lifetime.start.p0(i64 4, ptr %6) #8
  %16 = load ptr, ptr %5, align 8, !tbaa !22
  %17 = getelementptr inbounds nuw %struct.ADecorrelateContext, ptr %16, i32 0, i32 2
  %18 = load i64, ptr %17, align 8, !tbaa !57
  %19 = icmp eq i64 %18, -1
  br i1 %19, label %20, label %25

20:                                               ; preds = %1
  %21 = call i32 @av_get_random_seed()
  %22 = zext i32 %21 to i64
  %23 = load ptr, ptr %5, align 8, !tbaa !22
  %24 = getelementptr inbounds nuw %struct.ADecorrelateContext, ptr %23, i32 0, i32 2
  store i64 %22, ptr %24, align 8, !tbaa !57
  br label %25

25:                                               ; preds = %20, %1
  %26 = load ptr, ptr %5, align 8, !tbaa !22
  %27 = getelementptr inbounds nuw %struct.ADecorrelateContext, ptr %26, i32 0, i32 5
  %28 = load ptr, ptr %5, align 8, !tbaa !22
  %29 = getelementptr inbounds nuw %struct.ADecorrelateContext, ptr %28, i32 0, i32 2
  %30 = load i64, ptr %29, align 8, !tbaa !57
  %31 = trunc i64 %30 to i32
  call void @av_lfg_init(ptr noundef %27, i32 noundef %31)
  %32 = load ptr, ptr %3, align 8, !tbaa !35
  %33 = getelementptr inbounds nuw %struct.AVFilterLink, ptr %32, i32 0, i32 12
  %34 = getelementptr inbounds nuw %struct.AVChannelLayout, ptr %33, i32 0, i32 1
  %35 = load i32, ptr %34, align 4, !tbaa !56
  %36 = load ptr, ptr %5, align 8, !tbaa !22
  %37 = getelementptr inbounds nuw %struct.ADecorrelateContext, ptr %36, i32 0, i32 3
  store i32 %35, ptr %37, align 8, !tbaa !30
  %38 = load ptr, ptr %3, align 8, !tbaa !35
  %39 = getelementptr inbounds nuw %struct.AVFilterLink, ptr %38, i32 0, i32 12
  %40 = getelementptr inbounds nuw %struct.AVChannelLayout, ptr %39, i32 0, i32 1
  %41 = load i32, ptr %40, align 4, !tbaa !56
  %42 = sext i32 %41 to i64
  %43 = call noalias ptr @av_calloc(i64 noundef %42, i64 noundef 896)
  %44 = load ptr, ptr %5, align 8, !tbaa !22
  %45 = getelementptr inbounds nuw %struct.ADecorrelateContext, ptr %44, i32 0, i32 4
  store ptr %43, ptr %45, align 8, !tbaa !24
  %46 = load ptr, ptr %5, align 8, !tbaa !22
  %47 = getelementptr inbounds nuw %struct.ADecorrelateContext, ptr %46, i32 0, i32 4
  %48 = load ptr, ptr %47, align 8, !tbaa !24
  %49 = icmp ne ptr %48, null
  br i1 %49, label %51, label %50

50:                                               ; preds = %25
  store i32 -12, ptr %2, align 4
  store i32 1, ptr %7, align 4
  br label %107

51:                                               ; preds = %25
  call void @llvm.lifetime.start.p0(i64 4, ptr %8) #8
  store i32 0, ptr %8, align 4, !tbaa !29
  br label %52

52:                                               ; preds = %99, %51
  %53 = load i32, ptr %8, align 4, !tbaa !29
  %54 = load ptr, ptr %3, align 8, !tbaa !35
  %55 = getelementptr inbounds nuw %struct.AVFilterLink, ptr %54, i32 0, i32 12
  %56 = getelementptr inbounds nuw %struct.AVChannelLayout, ptr %55, i32 0, i32 1
  %57 = load i32, ptr %56, align 4, !tbaa !56
  %58 = icmp slt i32 %53, %57
  br i1 %58, label %60, label %59

59:                                               ; preds = %52
  store i32 2, ptr %7, align 4
  br label %102

60:                                               ; preds = %52
  call void @llvm.lifetime.start.p0(i64 4, ptr %9) #8
  store i32 0, ptr %9, align 4, !tbaa !29
  br label %61

61:                                               ; preds = %93, %60
  %62 = load i32, ptr %9, align 4, !tbaa !29
  %63 = load ptr, ptr %5, align 8, !tbaa !22
  %64 = getelementptr inbounds nuw %struct.ADecorrelateContext, ptr %63, i32 0, i32 1
  %65 = load i32, ptr %64, align 8, !tbaa !31
  %66 = icmp slt i32 %62, %65
  br i1 %66, label %68, label %67

67:                                               ; preds = %61
  store i32 5, ptr %7, align 4
  br label %96

68:                                               ; preds = %61
  %69 = load ptr, ptr %5, align 8, !tbaa !22
  %70 = getelementptr inbounds nuw %struct.ADecorrelateContext, ptr %69, i32 0, i32 4
  %71 = load ptr, ptr %70, align 8, !tbaa !24
  %72 = load i32, ptr %8, align 4, !tbaa !29
  %73 = sext i32 %72 to i64
  %74 = getelementptr inbounds [16 x %struct.APContext], ptr %71, i64 %73
  %75 = load i32, ptr %9, align 4, !tbaa !29
  %76 = sext i32 %75 to i64
  %77 = getelementptr inbounds [16 x %struct.APContext], ptr %74, i64 0, i64 %76
  %78 = load ptr, ptr %3, align 8, !tbaa !35
  %79 = getelementptr inbounds nuw %struct.AVFilterLink, ptr %78, i32 0, i32 11
  %80 = load i32, ptr %79, align 8, !tbaa !58
  %81 = load ptr, ptr %5, align 8, !tbaa !22
  %82 = getelementptr inbounds nuw %struct.ADecorrelateContext, ptr %81, i32 0, i32 5
  %83 = call i32 @av_lfg_get(ptr noundef %82)
  %84 = uitofp i32 %83 to double
  %85 = fdiv nsz double %84, 0x41EFFFFFFFE00000
  %86 = call nsz double @llvm.fmuladd.f64(double %85, double 2.291700e-03, double 8.333300e-04)
  %87 = call i32 @ap_init(ptr noundef %77, i32 noundef %80, double noundef %86)
  store i32 %87, ptr %6, align 4, !tbaa !29
  %88 = load i32, ptr %6, align 4, !tbaa !29
  %89 = icmp slt i32 %88, 0
  br i1 %89, label %90, label %92

90:                                               ; preds = %68
  %91 = load i32, ptr %6, align 4, !tbaa !29
  store i32 %91, ptr %2, align 4
  store i32 1, ptr %7, align 4
  br label %96

92:                                               ; preds = %68
  br label %93

93:                                               ; preds = %92
  %94 = load i32, ptr %9, align 4, !tbaa !29
  %95 = add nsw i32 %94, 1
  store i32 %95, ptr %9, align 4, !tbaa !29
  br label %61, !llvm.loop !59

96:                                               ; preds = %90, %67
  call void @llvm.lifetime.end.p0(i64 4, ptr %9) #8
  %97 = load i32, ptr %7, align 4
  switch i32 %97, label %102 [
    i32 5, label %98
  ]

98:                                               ; preds = %96
  br label %99

99:                                               ; preds = %98
  %100 = load i32, ptr %8, align 4, !tbaa !29
  %101 = add nsw i32 %100, 1
  store i32 %101, ptr %8, align 4, !tbaa !29
  br label %52, !llvm.loop !60

102:                                              ; preds = %96, %59
  call void @llvm.lifetime.end.p0(i64 4, ptr %8) #8
  %103 = load i32, ptr %7, align 4
  switch i32 %103, label %107 [
    i32 2, label %104
  ]

104:                                              ; preds = %102
  %105 = load ptr, ptr %5, align 8, !tbaa !22
  %106 = getelementptr inbounds nuw %struct.ADecorrelateContext, ptr %105, i32 0, i32 6
  store ptr @filter_channel_dbl, ptr %106, align 8, !tbaa !61
  store i32 0, ptr %2, align 4
  store i32 1, ptr %7, align 4
  br label %107

107:                                              ; preds = %104, %102, %50
  call void @llvm.lifetime.end.p0(i64 4, ptr %6) #8
  call void @llvm.lifetime.end.p0(i64 8, ptr %5) #8
  call void @llvm.lifetime.end.p0(i64 8, ptr %4) #8
  %108 = load i32, ptr %2, align 4
  ret i32 %108
}