; Function Attrs: nounwind uwtable
define internal range(i32 -12, 1) i32 @config_input(ptr noundef readonly captures(none) %0) #1 {
  %2 = getelementptr inbounds nuw i8, ptr %0, i64 16
  %3 = load ptr, ptr %2, align 8, !tbaa !32
  %4 = getelementptr inbounds nuw i8, ptr %3, i64 72
  %5 = load ptr, ptr %4, align 8, !tbaa !4
  %6 = getelementptr inbounds nuw i8, ptr %5, i64 16
  %7 = load i64, ptr %6, align 8, !tbaa !53
  %8 = icmp eq i64 %7, -1
  br i1 %8, label %9, label %12

9:                                                ; preds = %1
  %10 = tail call i32 @av_get_random_seed() #8
  %11 = zext i32 %10 to i64
  store i64 %11, ptr %6, align 8, !tbaa !53
  br label %12

12:                                               ; preds = %9, %1
  %13 = phi i64 [ %11, %9 ], [ %7, %1 ]
  %14 = getelementptr inbounds nuw i8, ptr %5, i64 40
  %15 = trunc i64 %13 to i32
  tail call void @av_lfg_init(ptr noundef nonnull %14, i32 noundef %15) #8
  %16 = getelementptr inbounds nuw i8, ptr %0, i64 76
  %17 = load i32, ptr %16, align 4, !tbaa !52
  %18 = getelementptr inbounds nuw i8, ptr %5, i64 24
  store i32 %17, ptr %18, align 8, !tbaa !25
  %19 = sext i32 %17 to i64
  %20 = tail call noalias ptr @av_calloc(i64 noundef %19, i64 noundef 896) #8
  %21 = getelementptr inbounds nuw i8, ptr %5, i64 32
  store ptr %20, ptr %21, align 8, !tbaa !20
  %.not = icmp eq ptr %20, null
  br i1 %.not, label %.loopexit, label %.preheader39

.preheader39:                                     ; preds = %12
  %22 = load i32, ptr %16, align 4, !tbaa !52
  %.not3442 = icmp sgt i32 %22, 0
  br i1 %.not3442, label %.preheader.lr.ph, label %.thread37

.preheader.lr.ph:                                 ; preds = %.preheader39
  %23 = getelementptr inbounds nuw i8, ptr %5, i64 8
  %24 = getelementptr inbounds nuw i8, ptr %0, i64 64
  %25 = getelementptr inbounds nuw i8, ptr %5, i64 296
  %26 = load i32, ptr %23, align 8, !tbaa !26
  %27 = icmp sgt i32 %26, 0
  br i1 %27, label %.preheader, label %.thread37

.preheader:                                       ; preds = %.preheader.lr.ph, %._crit_edge
  %28 = phi i32 [ %102, %._crit_edge ], [ %22, %.preheader.lr.ph ]
  %29 = phi i32 [ %103, %._crit_edge ], [ %26, %.preheader.lr.ph ]
  %indvars.iv46 = phi i64 [ %indvars.iv.next47, %._crit_edge ], [ 0, %.preheader.lr.ph ]
  %.not3340 = icmp sgt i32 %29, 0
  br i1 %.not3340, label %.lr.ph, label %._crit_edge

.lr.ph:                                           ; preds = %.preheader, %67
  %indvars.iv = phi i64 [ %indvars.iv.next, %67 ], [ 0, %.preheader ]
  %30 = load ptr, ptr %21, align 8, !tbaa !20
  %31 = getelementptr inbounds nuw [16 x %struct.APContext], ptr %30, i64 %indvars.iv46, i64 %indvars.iv
  %32 = load i32, ptr %24, align 8, !tbaa !54
  %33 = load i32, ptr %25, align 4, !tbaa !55
  %34 = add i32 %33, 40
  %35 = and i32 %34, 63
  %36 = zext nneg i32 %35 to i64
  %37 = getelementptr inbounds nuw [64 x i32], ptr %14, i64 0, i64 %36
  %38 = load i32, ptr %37, align 4, !tbaa !56
  %39 = add i32 %33, 9
  %40 = and i32 %39, 63
  %41 = zext nneg i32 %40 to i64
  %42 = getelementptr inbounds nuw [64 x i32], ptr %14, i64 0, i64 %41
  %43 = load i32, ptr %42, align 4, !tbaa !56
  %44 = add i32 %43, %38
  %45 = and i32 %33, 63
  %46 = zext nneg i32 %45 to i64
  %47 = getelementptr inbounds nuw [64 x i32], ptr %14, i64 0, i64 %46
  store i32 %44, ptr %47, align 4, !tbaa !56
  %48 = add i32 %33, 1
  store i32 %48, ptr %25, align 4, !tbaa !55
  %49 = uitofp i32 %44 to double
  %50 = fdiv nsz double %49, 0x41EFFFFFFFE00000
  %51 = tail call nsz double @llvm.fmuladd.f64(double %50, double 2.291700e-03, double 8.333300e-04)
  %52 = sitofp i32 %32 to double
  %53 = fmul nsz double %51, %52
  %54 = tail call nsz double @llvm.round.f64(double %53)
  %55 = tail call i64 @llvm.lrint.i64.f64(double %54)
  %56 = trunc i64 %55 to i32
  %57 = add nsw i32 %56, 1
  store i32 %57, ptr %31, align 8, !tbaa !57
  %58 = getelementptr inbounds nuw i8, ptr %31, i64 4
  store i32 0, ptr %58, align 4, !tbaa !60
  %59 = sext i32 %57 to i64
  %60 = tail call noalias ptr @av_calloc(i64 noundef %59, i64 noundef 8) #8
  %61 = getelementptr inbounds nuw i8, ptr %31, i64 8
  store ptr %60, ptr %61, align 8, !tbaa !61
  %62 = load i32, ptr %31, align 8, !tbaa !57
  %63 = sext i32 %62 to i64
  %64 = tail call noalias ptr @av_calloc(i64 noundef %63, i64 noundef 8) #8
  %65 = getelementptr inbounds nuw i8, ptr %31, i64 16
  store ptr %64, ptr %65, align 8, !tbaa !62
  %66 = load ptr, ptr %61, align 8, !tbaa !61
  %.not.i = icmp eq ptr %66, null
  %.not41.i = icmp eq ptr %64, null
  %or.cond.i = select i1 %.not.i, i1 true, i1 %.not41.i
  br i1 %or.cond.i, label %.loopexit, label %67

67:                                               ; preds = %.lr.ph
  %68 = fmul nsz double %52, 1.000000e-01
  %69 = fdiv nsz double -6.000000e+01, %68
  %70 = sitofp i32 %56 to double
  %71 = fmul nsz double %69, %70
  %72 = fmul nsz double %52, 8.000000e-03
  %73 = fdiv nsz double -6.000000e+01, %72
  %74 = fmul nsz double %73, %70
  %75 = fsub nsz double %71, %74
  %76 = fdiv nsz double %75, 2.000000e+01
  %77 = fmul nsz double %76, 0x400A934F0979A371
  %78 = tail call nsz double @llvm.exp2.f64(double %77)
  %79 = tail call nsz double @llvm.sqrt.f64(double %78)
  %80 = fdiv nsz double %74, 2.000000e+01
  %81 = fmul nsz double %80, 0x400A934F0979A371
  %82 = tail call nsz double @llvm.exp2.f64(double %81)
  %83 = fdiv nsz double 0x40BAFF80FB853C71, %52
  %84 = fmul nsz double %83, 5.000000e-01
  %85 = tail call nsz double @llvm.tan.f64(double %84)
  %86 = fadd nsz double %85, %79
  %87 = getelementptr inbounds nuw i8, ptr %31, i64 40
  %88 = fsub nsz double %85, %79
  %89 = fdiv nsz double %88, %86
  %90 = getelementptr inbounds nuw i8, ptr %31, i64 48
  store double %89, ptr %90, align 8, !tbaa !63
  %91 = fneg nsz double %79
  %92 = tail call nsz double @llvm.fmuladd.f64(double %78, double %85, double %91)
  %93 = fdiv nsz double %92, %86
  %94 = fmul nsz double %82, %93
  %95 = getelementptr inbounds nuw i8, ptr %31, i64 24
  store double %94, ptr %95, align 8, !tbaa !64
  %96 = tail call nsz double @llvm.fmuladd.f64(double %78, double %85, double %79)
  %97 = fdiv nsz double %96, %86
  %98 = fmul nsz double %82, %97
  %99 = getelementptr inbounds nuw i8, ptr %31, i64 32
  store double %98, ptr %99, align 8, !tbaa !65
  store double 1.000000e+00, ptr %87, align 8, !tbaa !66
  %indvars.iv.next = add nuw nsw i64 %indvars.iv, 1
  %100 = load i32, ptr %23, align 8, !tbaa !26
  %101 = sext i32 %100 to i64
  %.not33 = icmp slt i64 %indvars.iv.next, %101
  br i1 %.not33, label %.lr.ph, label %._crit_edge.loopexit, !llvm.loop !67

._crit_edge.loopexit:                             ; preds = %67
  %.pre = load i32, ptr %16, align 4, !tbaa !52
  br label %._crit_edge

._crit_edge:                                      ; preds = %._crit_edge.loopexit, %.preheader
  %102 = phi i32 [ %.pre, %._crit_edge.loopexit ], [ %28, %.preheader ]
  %103 = phi i32 [ %100, %._crit_edge.loopexit ], [ %29, %.preheader ]
  %indvars.iv.next47 = add nuw nsw i64 %indvars.iv46, 1
  %104 = sext i32 %102 to i64
  %.not34 = icmp slt i64 %indvars.iv.next47, %104
  br i1 %.not34, label %.preheader, label %.thread37, !llvm.loop !68

.thread37:                                        ; preds = %._crit_edge, %.preheader.lr.ph, %.preheader39
  %105 = getelementptr inbounds nuw i8, ptr %5, i64 304
  store ptr @filter_channel_dbl, ptr %105, align 8, !tbaa !70
  br label %.loopexit

.loopexit:                                        ; preds = %.lr.ph, %12, %.thread37
  %.030 = phi i32 [ 0, %.thread37 ], [ -12, %12 ], [ -12, %.lr.ph ]
  ret i32 %.030
}